; Function Attrs: nounwind sspstrong uwtable
define dso_local zeroext i1 @visit_type_ChardevInfo_members(ptr noundef %v, ptr noundef %obj, ptr noundef %errp) local_unnamed_addr #0 {
entry:
  %call = tail call zeroext i1 @visit_type_str(ptr noundef %v, ptr noundef nonnull @.str, ptr noundef %obj, ptr noundef %errp) #5
  br i1 %call, label %if.end, label %return

if.end:                                           ; preds = %entry
  %filename = getelementptr inbounds nuw i8, ptr %obj, i64 8
  %call1 = tail call zeroext i1 @visit_type_str(ptr noundef %v, ptr noundef nonnull @.str.1, ptr noundef nonnull %filename, ptr noundef %errp) #5
  br i1 %call1, label %if.end3, label %return

if.end3:                                          ; preds = %if.end
  %frontend_open = getelementptr inbounds nuw i8, ptr %obj, i64 16
  %call4 = tail call zeroext i1 @visit_type_bool(ptr noundef %v, ptr noundef nonnull @.str.2, ptr noundef nonnull %frontend_open, ptr noundef %errp) #5
  br label %return

return:                                           ; preds = %if.end3, %if.end, %entry
  %retval.0 = phi i1 [ false, %entry ], [ false, %if.end ], [ %call4, %if.end3 ]
  ret i1 %retval.0
}